c__builtin__
set
p0
((lp1
V123.125.29.138
p2
aV180.76.148.209
p3
aV203.208.48.92
p4
aV123.125.7.218
p5
aV60.221.222.10
p6
aV220.194.203.66
p7
aV123.125.18.109
p8
aV123.125.7.219
p9
aV111.206.200.26
p10
aV123.125.7.217
p11
aV123.125.7.216
p12
aV202.108.249.237
p13
aV123.125.102.63
p14
aV123.125.7.235
p15
aV123.125.7.234
p16
aV123.125.18.95
p17
aV220.194.215.149
p18
aV202.108.249.223
p19
aV202.108.250.213
p20
aV123.126.157.222
p21
aV111.206.13.62
p22
aV50.56.19.116
p23
aV123.125.29.203
p24
aV42.62.48.186
p25
aV111.206.200.76
p26
aV123.125.18.85
p27
aV123.125.7.223
p28
aV123.125.102.70
p29
aV123.125.7.221
p30
aV202.108.7.100
p31
aV202.108.250.209
p32
aV111.206.200.20
p33
aV123.125.102.36
p34
aV123.129.202.151
p35
aV52.74.179.245
p36
aV202.108.249.236
p37
aV202.108.250.226
p38
aV220.194.215.152
p39
aV23.67.174.233
p40
aV104.77.59.117
p41
atp42
Rp43
.