c__builtin__
set
p0
((lp1
V111.206.239.20
p2
aV111.206.239.22
p3
aV123.125.106.67
p4
aV123.125.106.66
p5
aV202.108.250.212
p6
aV123.125.18.100
p7
aV202.108.250.214
p8
aV202.108.250.210
p9
aV202.108.250.211
p10
aV202.108.7.133
p11
aV121.22.247.248
p12
aV111.206.239.19
p13
aV111.206.186.245
p14
aV123.125.29.246
p15
aV123.125.18.88
p16
aV123.125.29.147
p17
aV123.125.18.86
p18
aV123.125.31.23
p19
aV123.125.18.83
p20
aV123.125.7.220
p21
aV202.108.249.211
p22
aV202.108.250.225
p23
aV202.108.249.235
p24
aV123.125.105.139
p25
aV220.194.215.151
p26
aV220.194.215.150
p27
aV60.205.83.166
p28
atp29
Rp30
.